; Function Attrs: nounwind uwtable
define dso_local i32 @onig_new_without_alloc(ptr noundef initializes((0, 456)) %0, ptr noundef %1, ptr noundef %2, i32 noundef %3, ptr noundef %4, ptr noundef %5, ptr noundef captures(address_is_null) %6) local_unnamed_addr #6 {
  %8 = load i32, ptr @OnigDefaultCaseFoldFlag, align 4, !tbaa !4
  tail call void @llvm.memset.p0.i64(ptr noundef nonnull align 8 dereferenceable(456) %0, i8 0, i64 456, i1 false)
  %.b.i = load i1, ptr @onig_inited, align 4
  br i1 %.b.i, label %12, label %.lr.ph.i.i

.lr.ph.i.i:                                       ; preds = %7
  %9 = tail call i32 @onigenc_init() #22
  store i1 true, ptr @onig_inited, align 4
  %10 = tail call i32 @onig_initialize_encoding(ptr noundef %4) #22
  %.not.i.i = icmp eq i32 %10, 0
  br i1 %.not.i.i, label %11, label %onig_reg_init.exit.thread

11:                                               ; preds = %.lr.ph.i.i
  tail call void @onig_warning(ptr noundef nonnull @.str) #22
  br label %12

12:                                               ; preds = %11, %7
  %13 = icmp eq ptr %4, null
  br i1 %13, label %onig_reg_init.exit.thread, label %14

14:                                               ; preds = %12
  %15 = and i32 %3, 384
  %16 = icmp eq i32 %15, 384
  br i1 %16, label %onig_reg_init.exit.thread, label %17

17:                                               ; preds = %14
  %18 = and i32 %3, 64
  %.not31.i = icmp eq i32 %18, 0
  %19 = getelementptr inbounds nuw i8, ptr %5, i64 12
  %20 = load i32, ptr %19, align 4, !tbaa !167
  %21 = or i32 %20, %3
  %22 = and i32 %21, -9
  %.028.i = select i1 %.not31.i, i32 %21, i32 %22
  %23 = and i32 %.028.i, 32768
  %.not32.i = icmp eq i32 %23, 0
  %24 = and i32 %8, -1074790402
  %25 = or disjoint i32 %24, 1
  %.029.i = select i1 %.not32.i, i32 %8, i32 %25
  %26 = getelementptr inbounds nuw i8, ptr %0, i64 96
  store ptr %4, ptr %26, align 8, !tbaa !13
  %27 = getelementptr inbounds nuw i8, ptr %0, i64 104
  store i32 %.028.i, ptr %27, align 8, !tbaa !105
  %28 = getelementptr inbounds nuw i8, ptr %0, i64 112
  store ptr %5, ptr %28, align 8, !tbaa !168
  %29 = getelementptr inbounds nuw i8, ptr %0, i64 136
  store i32 0, ptr %29, align 8, !tbaa !77
  %30 = getelementptr inbounds nuw i8, ptr %0, i64 160
  store ptr null, ptr %30, align 8, !tbaa !25
  %31 = getelementptr inbounds nuw i8, ptr %0, i64 448
  store ptr null, ptr %31, align 8, !tbaa !8
  store ptr null, ptr %0, align 8, !tbaa !17
  %32 = getelementptr inbounds nuw i8, ptr %0, i64 16
  %33 = getelementptr inbounds nuw i8, ptr %0, i64 128
  store ptr null, ptr %33, align 8, !tbaa !169
  %34 = getelementptr inbounds nuw i8, ptr %0, i64 120
  tail call void @llvm.memset.p0.i64(ptr noundef nonnull align 8 dereferenceable(16) %32, i8 0, i64 16, i1 false)
  store i32 %.029.i, ptr %34, align 8, !tbaa !50
  %35 = tail call i32 @onig_compile(ptr noundef nonnull %0, ptr noundef %1, ptr noundef %2, ptr noundef %6)
  br label %onig_reg_init.exit.thread

onig_reg_init.exit.thread:                        ; preds = %.lr.ph.i.i, %14, %12, %17
  %.0 = phi i32 [ %35, %17 ], [ -23, %.lr.ph.i.i ], [ -403, %14 ], [ -21, %12 ]
  ret i32 %.0
}